target datalayout = "e-m:e-p270:32:32-p271:32:32-p272:64:64-i64:64-i128:128-f80:128-n8:16:32:64-S128"
target triple = "x86_64-pc-linux-gnu"

; Function Attrs: mustprogress uwtable
define dso_local noundef zeroext i1 @_ZN4Json18StyledStreamWriter18hasCommentForValueERKNS_5ValueE(ptr noundef nonnull align 8 dereferenceable(40) %0) #0 align 2 {
  %2 = alloca ptr, align 8
  store ptr %0, ptr %2, align 8
  %3 = load ptr, ptr %2, align 8
  %4 = call noundef zeroext i1 @_ZNK4Json5Value10hasCommentENS_16CommentPlacementE(ptr noundef nonnull align 8 dereferenceable(40) %3, i32 noundef 0)
  br i1 %4, label %11, label %5

5:                                                ; preds = %1
  %6 = load ptr, ptr %2, align 8
  %7 = call noundef zeroext i1 @_ZNK4Json5Value10hasCommentENS_16CommentPlacementE(ptr noundef nonnull align 8 dereferenceable(40) %6, i32 noundef 1)
  br i1 %7, label %11, label %8

8:                                                ; preds = %5
  %9 = load ptr, ptr %2, align 8
  %10 = call noundef zeroext i1 @_ZNK4Json5Value10hasCommentENS_16CommentPlacementE(ptr noundef nonnull align 8 dereferenceable(40) %9, i32 noundef 2)
  br label %11

11:                                               ; preds = %8, %5, %1
  %12 = phi i1 [ true, %5 ], [ true, %1 ], [ %10, %8 ]
  ret i1 %12
}